target datalayout = "e-m:e-p270:32:32-p271:32:32-p272:64:64-i64:64-i128:128-f80:128-n8:16:32:64-S128"
target triple = "x86_64-unknown-linux-gnu"

%struct.BlockCopyState = type { ptr, ptr, i64, i64, i64, i32, %struct.CoMutex, i64, i32, %struct.BlockReqList, %struct.anon.0, i8, ptr, ptr, ptr, %struct.RateLimit }
%struct.CoMutex = type { i32, ptr, %struct.anon, %struct.anon, i32, i32, ptr }
%struct.anon = type { ptr }
%struct.BlockReqList = type { ptr }
%struct.anon.0 = type { ptr }
%struct.RateLimit = type { %struct.QemuMutex, i64, i64, i64, i64, i64 }
%struct.QemuMutex = type { %union.pthread_mutex_t, i8 }
%union.pthread_mutex_t = type { %struct.__pthread_mutex_s }
%struct.__pthread_mutex_s = type { i32, i32, i32, i32, i32, i16, i16, %struct.__pthread_internal_list }
%struct.__pthread_internal_list = type { ptr, ptr }
%struct.CoQueue = type { %struct.anon.12 }
%struct.anon.12 = type { ptr, ptr }
%struct.BlockCopyTask = type { %struct.AioTask, ptr, ptr, i32, %struct.BlockReq }
%struct.AioTask = type { ptr, ptr, i32 }
%struct.BlockReq = type { i64, i64, %struct.CoQueue, %struct.anon.13 }
%struct.anon.13 = type { ptr, ptr }

; Function Attrs: nounwind sspstrong uwtable
define internal i32 @block_copy_task_run(ptr noundef %pool, ptr noundef %task) #0 {
entry:
  %retval = alloca i32, align 4
  %pool.addr = alloca ptr, align 8
  %task.addr = alloca ptr, align 8
  %ret = alloca i32, align 4
  store ptr %pool, ptr %pool.addr, align 8
  store ptr %task, ptr %task.addr, align 8
  %0 = load ptr, ptr %pool.addr, align 8
  %tobool = icmp ne ptr %0, null
  br i1 %tobool, label %if.end, label %if.then

if.then:                                          ; preds = %entry
  %1 = load ptr, ptr %task.addr, align 8
  %task1 = getelementptr inbounds %struct.BlockCopyTask, ptr %1, i32 0, i32 0
  %func = getelementptr inbounds %struct.AioTask, ptr %task1, i32 0, i32 1
  %2 = load ptr, ptr %func, align 8
  %3 = load ptr, ptr %task.addr, align 8
  %task2 = getelementptr inbounds %struct.BlockCopyTask, ptr %3, i32 0, i32 0
  %call = call i32 %2(ptr noundef %task2)
  store i32 %call, ptr %ret, align 4
  %4 = load ptr, ptr %task.addr, align 8
  call void @g_free(ptr noundef %4)
  %5 = load i32, ptr %ret, align 4
  store i32 %5, ptr %retval, align 4
  br label %return

if.end:                                           ; preds = %entry
  %6 = load ptr, ptr %pool.addr, align 8
  call void @aio_task_pool_wait_slot(ptr noundef %6)
  %7 = load ptr, ptr %pool.addr, align 8
  %call3 = call i32 @aio_task_pool_status(ptr noundef %7)
  %cmp = icmp slt i32 %call3, 0
  br i1 %cmp, label %if.then4, label %if.end5

if.then4:                                         ; preds = %if.end
  %8 = load ptr, ptr %task.addr, align 8
  %s = getelementptr inbounds %struct.BlockCopyTask, ptr %8, i32 0, i32 1
  %9 = load ptr, ptr %s, align 8
  %mem = getelementptr inbounds %struct.BlockCopyState, ptr %9, i32 0, i32 14
  %10 = load ptr, ptr %mem, align 8
  %11 = load ptr, ptr %task.addr, align 8
  %req = getelementptr inbounds %struct.BlockCopyTask, ptr %11, i32 0, i32 4
  %bytes = getelementptr inbounds %struct.BlockReq, ptr %req, i32 0, i32 1
  %12 = load i64, ptr %bytes, align 8
  call void @co_put_to_shres(ptr noundef %10, i64 noundef %12)
  %13 = load ptr, ptr %task.addr, align 8
  call void @block_copy_task_end(ptr noundef %13, i32 noundef -125)
  %14 = load ptr, ptr %task.addr, align 8
  call void @g_free(ptr noundef %14)
  store i32 -125, ptr %retval, align 4
  br label %return

if.end5:                                          ; preds = %if.end
  %15 = load ptr, ptr %pool.addr, align 8
  %16 = load ptr, ptr %task.addr, align 8
  %task6 = getelementptr inbounds %struct.BlockCopyTask, ptr %16, i32 0, i32 0
  call void @aio_task_pool_start_task(ptr noundef %15, ptr noundef %task6)
  store i32 0, ptr %retval, align 4
  br label %return

return:                                           ; preds = %if.end5, %if.then4, %if.then
  %17 = load i32, ptr %retval, align 4
  ret i32 %17
}