; Function Attrs: nounwind sspstrong uwtable
define internal i32 @block_copy_task_run(ptr noundef %pool, ptr noundef %task) #0 {
entry:
  %tobool.not = icmp eq ptr %pool, null
  br i1 %tobool.not, label %if.then, label %if.end

if.then:                                          ; preds = %entry
  %func = getelementptr inbounds nuw i8, ptr %task, i64 8
  %0 = load ptr, ptr %func, align 8
  %call = tail call i32 %0(ptr noundef %task) #14
  tail call void @g_free(ptr noundef %task) #14
  br label %return

if.end:                                           ; preds = %entry
  tail call void @aio_task_pool_wait_slot(ptr noundef nonnull %pool) #14
  %call3 = tail call i32 @aio_task_pool_status(ptr noundef nonnull %pool) #14
  %cmp = icmp slt i32 %call3, 0
  br i1 %cmp, label %if.then4, label %if.end5

if.then4:                                         ; preds = %if.end
  %s = getelementptr inbounds nuw i8, ptr %task, i64 24
  %1 = load ptr, ptr %s, align 8
  %mem = getelementptr inbounds nuw i8, ptr %1, i64 152
  %2 = load ptr, ptr %mem, align 8
  %bytes = getelementptr inbounds nuw i8, ptr %task, i64 56
  %3 = load i64, ptr %bytes, align 8
  tail call void @co_put_to_shres(ptr noundef %2, i64 noundef %3) #14
  tail call void @block_copy_task_end(ptr noundef %task, i32 noundef -125)
  tail call void @g_free(ptr noundef %task) #14
  br label %return

if.end5:                                          ; preds = %if.end
  tail call void @aio_task_pool_start_task(ptr noundef nonnull %pool, ptr noundef %task) #14
  br label %return

return:                                           ; preds = %if.end5, %if.then4, %if.then
  %retval.0 = phi i32 [ -125, %if.then4 ], [ 0, %if.end5 ], [ %call, %if.then ]
  ret i32 %retval.0
}